; Function Attrs: null_pointer_is_valid sspstrong uwtable
define internal void @ip_prompt(ptr noundef %0, ptr noundef %1) #1 {
  %3 = getelementptr inbounds nuw i8, ptr %0, i64 408
  %4 = load ptr, ptr %3, align 8
  %5 = load i32, ptr @proto_ip, align 4
  %6 = getelementptr inbounds nuw i8, ptr %0, i64 376
  %7 = load i8, ptr %6, align 8
  %8 = zext i8 %7 to i32
  %9 = tail call ptr @p_get_proto_data(ptr noundef %4, ptr noundef %0, i32 noundef %5, i32 noundef %8)
  %10 = ptrtoint ptr %9 to i64
  %11 = trunc i64 %10 to i32
  %12 = tail call i32 (ptr, i64, i32, i64, ptr, ...) @__snprintf_chk(ptr noundef %1, i64 noundef 200, i32 noundef 2, i64 noundef -1, ptr noundef nonnull @.str.551, i32 noundef %11)
  ret void
}